#include <math.h>
#include <stdio.h>
#include <stdlib.h>
#include <string.h>


main()
{
	int i,j,x1,x2,y1,y2;
	int n,t;
	int area,statue=0;
	scanf("%d",&n);
	for(i=0;i<n;i++)
	{
		for(j=0;j<n;j++)
		{
			scanf("%d",&t);
			if(t==0)
			{
				if(statue==0)
				{
					x1=i;
					y1=j;
					statue++;
				}
				x2=i;
				y2=j;
			}
		}
	}
	area=(x2-x1-1)*(y2-y1-1);
	printf("%d",area);
} 